Certificate:
    Data:
        Version: 1 (0x0)
        Serial Number: 4 (0x4)
    Signature Algorithm: md5WithRSAEncryption
        Issuer: O=\x04\x10\x04\x90\x04\x14\x04\x02b\x11\x89\x81\x064\x06+, OU=IT/emailAddress=mock@email.com, L=FakeCity, ST=FakeState, C=RU, CN=\x04\x10\x04\x11\x04\x12\x04\x13\x04\x90\x00.0B0D0F0H0J
        Validity
            Not Before: Jan 12 19:19:14 2018 GMT
            Not After : Jan 12 19:19:14 2019 GMT
        Subject: C=RU, ST=FakeState, O=\x04\x10\x04\x90\x04\x14\x04\x02b\x11\x89\x81\x064\x06+, OU=IT, CN=\x04\x10\x04\x11\x04\x12\x04\x13\x04\x90\x00.0B0D0F0H0J
        Subject Public Key Info:
            Public Key Algorithm: rsaEncryption
                Public-Key: (1024 bit)
                Modulus:
                    00:c2:90:c2:0a:d6:12:a0:f1:f1:c7:81:58:8e:0e:
                    8d:8f:6d:68:22:8b:29:e4:6b:e7:2f:ce:5b:bd:fb:
                    d2:b8:e5:68:62:01:e1:c3:04:3f:17:53:c9:3d:31:
                    2b:e4:91:f7:6c:41:c6:84:36:a1:d7:b1:83:b5:be:
                    1c:f8:f7:d2:55:74:5a:7e:52:1f:d3:da:6f:81:14:
                    27:f4:6a:04:41:50:a5:e4:af:fe:30:c7:8f:fa:0c:
                    45:83:b6:10:bc:0c:08:8e:94:b5:90:fd:4f:86:c9:
                    87:3e:cc:d9:dd:3b:56:2c:08:06:fe:de:13:fa:03:
                    f7:53:0c:e6:5d:09:9c:77:57
                Exponent: 65537 (0x10001)
    Signature Algorithm: md5WithRSAEncryption
         aa:9f:08:bb:8d:e5:33:28:dd:6d:f5:de:0e:de:e9:3c:ad:e2:
         66:0e:a5:fe:ab:94:50:c1:31:78:b5:85:4f:25:3c:ab:9e:17:
         79:f9:76:d6:16:8b:3c:ed:e3:d7:c0:1f:32:46:b0:03:c3:09:
         59:f9:51:9a:33:7a:29:d9:f8:f3:3a:28:1e:99:d8:66:a7:fe:
         fc:e2:b9:05:ee:75:66:2f:f2:de:25:5b:34:d5:2e:cf:bf:25:
         c5:40:60:aa:1d:99:3e:80:51:8d:64:c7:46:23:73:cb:37:e0:
         d0:13:29:18:79:8c:8d:24:27:c0:a7:ed:05:73:c4:28:56:2b:
         61:cd
-----BEGIN CERTIFICATE-----
MIICdjCCAd8CAQQwDQYJKoZIhvcNAQEEBQAwgZwxGTAXBgNVBAoeEAQQBJAEFAQC
YhGJgQY0BisxCzAJBgNVBAsTAklUMR0wGwYJKoZIhvcNAQkBFg5tb2NrQGVtYWls
LmNvbTERMA8GA1UEBxMIRmFrZUNpdHkxEjAQBgNVBAgTCUZha2VTdGF0ZTELMAkG
A1UEBhMCUlUxHzAdBgNVBAMeFgQQBBEEEgQTBJAALjBCMEQwRjBIMEowHhcNMTgw
MTEyMTkxOTE0WhcNMTkwMTEyMTkxOTE0WjBqMQswCQYDVQQGEwJSVTESMBAGA1UE
CBMJRmFrZVN0YXRlMRkwFwYDVQQKHhAEEASQBBQEAmIRiYEGNAYrMQswCQYDVQQL
EwJJVDEfMB0GA1UEAx4WBBAEEQQSBBMEkAAuMEIwRDBGMEgwSjCBnzANBgkqhkiG
9w0BAQEFAAOBjQAwgYkCgYEAwpDCCtYSoPHxx4FYjg6Nj21oIosp5GvnL85bvfvS
uOVoYgHhwwQ/F1PJPTEr5JH3bEHGhDah17GDtb4c+PfSVXRaflIf09pvgRQn9GoE
QVCl5K/+MMeP+gxFg7YQvAwIjpS1kP1PhsmHPszZ3TtWLAgG/t4T+gP3UwzmXQmc
d1cCAwEAATANBgkqhkiG9w0BAQQFAAOBgQCqnwi7jeUzKN1t9d4O3uk8reJmDqX+
q5RQwTF4tYVPJTyrnhd5+XbWFos87ePXwB8yRrADwwlZ+VGaM3op2fjzOigemdhm
p/784rkF7nVmL/LeJVs01S7PvyXFQGCqHZk+gFGNZMdGI3PLN+DQEykYeYyNJCfA
p+0Fc8QoVithzQ==
-----END CERTIFICATE-----
